target datalayout = "e-m:e-p270:32:32-p271:32:32-p272:64:64-i64:64-i128:128-f80:128-n8:16:32:64-S128"
target triple = "x86_64-pc-linux-gnu"

%"struct.std::_Rb_tree_header" = type { %"struct.std::_Rb_tree_node_base", i64 }
%"struct.std::_Rb_tree_node_base" = type { i32, ptr, ptr, ptr }
%"class.std::__cxx11::basic_string" = type { %"struct.std::__cxx11::basic_string<char>::_Alloc_hider", i64, %union.anon }
%"struct.std::__cxx11::basic_string<char>::_Alloc_hider" = type { ptr }
%union.anon = type { i64, [8 x i8] }
%"class.std::deque.54" = type { %"class.std::_Deque_base.55" }
%"class.std::_Deque_base.55" = type { %"struct.std::_Deque_base<std::__cxx11::basic_string<char>, std::allocator<std::__cxx11::basic_string<char>>>::_Deque_impl" }
%"struct.std::_Deque_base<std::__cxx11::basic_string<char>, std::allocator<std::__cxx11::basic_string<char>>>::_Deque_impl" = type { %"struct.std::_Deque_base<std::__cxx11::basic_string<char>, std::allocator<std::__cxx11::basic_string<char>>>::_Deque_impl_data" }
%"struct.std::_Deque_base<std::__cxx11::basic_string<char>, std::allocator<std::__cxx11::basic_string<char>>>::_Deque_impl_data" = type { ptr, i64, %"struct.std::_Deque_iterator.56", %"struct.std::_Deque_iterator.56" }
%"struct.std::_Deque_iterator.56" = type { ptr, ptr, ptr, ptr }
%class.V3PreProcImp = type { %class.V3PreProc, %"class.std::map.58", ptr, ptr, %"class.std::stack.63", i32, i32, %"class.std::stack.70", i32, i8, %"class.std::__cxx11::basic_string", %"class.std::__cxx11::basic_string", %"class.std::__cxx11::basic_string", i8, i32, i8, i8, i32, %"class.std::__cxx11::basic_string", i8, ptr, %"class.std::__cxx11::basic_string", %"class.std::stack.77", %"class.std::stack.84", i32, i8, %"class.std::stack.91", %class.V3PreExpr, i32, %"class.std::__cxx11::basic_string" }
%class.V3PreProc = type { ptr }
%"class.std::map.58" = type { %"class.std::_Rb_tree.59" }
%"class.std::_Rb_tree.59" = type { %"struct.std::_Rb_tree<const std::__cxx11::basic_string<char>, std::pair<const std::__cxx11::basic_string<char>, VDefine>, std::_Select1st<std::pair<const std::__cxx11::basic_string<char>, VDefine>>, std::less<const std::__cxx11::basic_string<char>>>::_Rb_tree_impl" }
%"struct.std::_Rb_tree<const std::__cxx11::basic_string<char>, std::pair<const std::__cxx11::basic_string<char>, VDefine>, std::_Select1st<std::pair<const std::__cxx11::basic_string<char>, VDefine>>, std::less<const std::__cxx11::basic_string<char>>>::_Rb_tree_impl" = type { [8 x i8], %"struct.std::_Rb_tree_header" }
%"class.std::stack.63" = type { %"class.std::deque.64" }
%"class.std::deque.64" = type { %"class.std::_Deque_base.65" }
%"class.std::_Deque_base.65" = type { %"struct.std::_Deque_base<V3PreLex *, std::allocator<V3PreLex *>>::_Deque_impl" }
%"struct.std::_Deque_base<V3PreLex *, std::allocator<V3PreLex *>>::_Deque_impl" = type { %"struct.std::_Deque_base<V3PreLex *, std::allocator<V3PreLex *>>::_Deque_impl_data" }
%"struct.std::_Deque_base<V3PreLex *, std::allocator<V3PreLex *>>::_Deque_impl_data" = type { ptr, i64, %"struct.std::_Deque_iterator.69", %"struct.std::_Deque_iterator.69" }
%"struct.std::_Deque_iterator.69" = type { ptr, ptr, ptr, ptr }
%"class.std::stack.70" = type { %"class.std::deque.71" }
%"class.std::deque.71" = type { %"class.std::_Deque_base.72" }
%"class.std::_Deque_base.72" = type { %"struct.std::_Deque_base<V3PreProcImp::ProcState, std::allocator<V3PreProcImp::ProcState>>::_Deque_impl" }
%"struct.std::_Deque_base<V3PreProcImp::ProcState, std::allocator<V3PreProcImp::ProcState>>::_Deque_impl" = type { %"struct.std::_Deque_base<V3PreProcImp::ProcState, std::allocator<V3PreProcImp::ProcState>>::_Deque_impl_data" }
%"struct.std::_Deque_base<V3PreProcImp::ProcState, std::allocator<V3PreProcImp::ProcState>>::_Deque_impl_data" = type { ptr, i64, %"struct.std::_Deque_iterator.76", %"struct.std::_Deque_iterator.76" }
%"struct.std::_Deque_iterator.76" = type { ptr, ptr, ptr, ptr }
%"class.std::stack.77" = type { %"class.std::deque.78" }
%"class.std::deque.78" = type { %"class.std::_Deque_base.79" }
%"class.std::_Deque_base.79" = type { %"struct.std::_Deque_base<VDefineRef, std::allocator<VDefineRef>>::_Deque_impl" }
%"struct.std::_Deque_base<VDefineRef, std::allocator<VDefineRef>>::_Deque_impl" = type { %"struct.std::_Deque_base<VDefineRef, std::allocator<VDefineRef>>::_Deque_impl_data" }
%"struct.std::_Deque_base<VDefineRef, std::allocator<VDefineRef>>::_Deque_impl_data" = type { ptr, i64, %"struct.std::_Deque_iterator.83", %"struct.std::_Deque_iterator.83" }
%"struct.std::_Deque_iterator.83" = type { ptr, ptr, ptr, ptr }
%"class.std::stack.84" = type { %"class.std::deque.85" }
%"class.std::deque.85" = type { %"class.std::_Deque_base.86" }
%"class.std::_Deque_base.86" = type { %"struct.std::_Deque_base<VPreIfEntry, std::allocator<VPreIfEntry>>::_Deque_impl" }
%"struct.std::_Deque_base<VPreIfEntry, std::allocator<VPreIfEntry>>::_Deque_impl" = type { %"struct.std::_Deque_base<VPreIfEntry, std::allocator<VPreIfEntry>>::_Deque_impl_data" }
%"struct.std::_Deque_base<VPreIfEntry, std::allocator<VPreIfEntry>>::_Deque_impl_data" = type { ptr, i64, %"struct.std::_Deque_iterator.90", %"struct.std::_Deque_iterator.90" }
%"struct.std::_Deque_iterator.90" = type { ptr, ptr, ptr, ptr }
%"class.std::stack.91" = type { %"class.std::deque.54" }
%class.V3PreExpr = type <{ %"class.std::deque.92", %"class.std::deque.92", %"class.std::deque.92", ptr, [10 x [10 x i8]], [4 x i8] }>
%"class.std::deque.92" = type { %"class.std::_Deque_base.93" }
%"class.std::_Deque_base.93" = type { %"struct.std::_Deque_base<V3PreExprToken, std::allocator<V3PreExprToken>>::_Deque_impl" }
%"struct.std::_Deque_base<V3PreExprToken, std::allocator<V3PreExprToken>>::_Deque_impl" = type { %"struct.std::_Deque_base<V3PreExprToken, std::allocator<V3PreExprToken>>::_Deque_impl_data" }
%"struct.std::_Deque_base<V3PreExprToken, std::allocator<V3PreExprToken>>::_Deque_impl_data" = type { ptr, i64, %"struct.std::_Deque_iterator.97", %"struct.std::_Deque_iterator.97" }
%"struct.std::_Deque_iterator.97" = type { ptr, ptr, ptr, ptr }
%"struct.std::_Rb_tree_iterator" = type { ptr }
%"struct.std::pair" = type { %"class.std::__cxx11::basic_string", %class.VDefine }
%class.VDefine = type <{ ptr, %"class.std::__cxx11::basic_string", %"class.std::__cxx11::basic_string", i8, [7 x i8] }>
%"struct.std::_Rb_tree_const_iterator" = type { ptr }
%"struct.std::_Rb_tree_node.179" = type { %"struct.std::_Rb_tree_node_base", %"struct.__gnu_cxx::__aligned_membuf.180" }
%"struct.__gnu_cxx::__aligned_membuf.180" = type { [112 x i8] }

; Function Attrs: mustprogress nounwind uwtable
define linkonce_odr dso_local noundef ptr @_ZN9__gnu_cxx16__aligned_membufISt4pairIKNSt7__cxx1112basic_stringIcSt11char_traitsIcESaIcEEE7VDefineEE7_M_addrEv(ptr noundef nonnull align 8 dereferenceable(112) %0) #4 comdat align 2 {
  %2 = alloca ptr, align 8
  store ptr %0, ptr %2, align 8, !tbaa !787
  %3 = load ptr, ptr %2, align 8
  %4 = getelementptr inbounds nuw %"struct.__gnu_cxx::__aligned_membuf.180", ptr %3, i32 0, i32 0
  ret ptr %4
}

; Function Attrs: mustprogress nounwind uwtable
define linkonce_odr dso_local void @_ZNSt23_Rb_tree_const_iteratorISt4pairIKNSt7__cxx1112basic_stringIcSt11char_traitsIcESaIcEEE7VDefineEEC2ERKSt17_Rb_tree_iteratorIS9_E(ptr noundef nonnull align 8 dereferenceable(8) %0, ptr noundef nonnull align 8 dereferenceable(8) %1) unnamed_addr #4 comdat align 2 {
  %3 = alloca ptr, align 8
  %4 = alloca ptr, align 8
  store ptr %0, ptr %3, align 8, !tbaa !335
  store ptr %1, ptr %4, align 8, !tbaa !271
  %5 = load ptr, ptr %3, align 8
  %6 = getelementptr inbounds nuw %"struct.std::_Rb_tree_const_iterator", ptr %5, i32 0, i32 0
  %7 = load ptr, ptr %4, align 8, !tbaa !271
  %8 = getelementptr inbounds nuw %"struct.std::_Rb_tree_iterator", ptr %7, i32 0, i32 0
  %9 = load ptr, ptr %8, align 8, !tbaa !273
  store ptr %9, ptr %6, align 8, !tbaa !337
  ret void
}

; Function Attrs: mustprogress nounwind uwtable
define linkonce_odr dso_local noundef ptr @_ZN9__gnu_cxx16__aligned_membufISt4pairIKNSt7__cxx1112basic_stringIcSt11char_traitsIcESaIcEEE7VDefineEE6_M_ptrEv(ptr noundef nonnull align 8 dereferenceable(112) %0) #4 comdat align 2 {
  %2 = alloca ptr, align 8
  store ptr %0, ptr %2, align 8, !tbaa !787
  %3 = load ptr, ptr %2, align 8
  %4 = call noundef ptr @_ZN9__gnu_cxx16__aligned_membufISt4pairIKNSt7__cxx1112basic_stringIcSt11char_traitsIcESaIcEEE7VDefineEE7_M_addrEv(ptr noundef nonnull align 8 dereferenceable(112) %3) #3
  ret ptr %4
}

; Function Attrs: mustprogress nounwind uwtable
define linkonce_odr dso_local void @_ZNSt17_Rb_tree_iteratorISt4pairIKNSt7__cxx1112basic_stringIcSt11char_traitsIcESaIcEEE7VDefineEEC2EPSt18_Rb_tree_node_base(ptr noundef nonnull align 8 dereferenceable(8) %0, ptr noundef %1) unnamed_addr #4 comdat align 2 {
  %3 = alloca ptr, align 8
  %4 = alloca ptr, align 8
  store ptr %0, ptr %3, align 8, !tbaa !271
  store ptr %1, ptr %4, align 8, !tbaa !269
  %5 = load ptr, ptr %3, align 8
  %6 = getelementptr inbounds nuw %"struct.std::_Rb_tree_iterator", ptr %5, i32 0, i32 0
  %7 = load ptr, ptr %4, align 8, !tbaa !269
  store ptr %7, ptr %6, align 8, !tbaa !273
  ret void
}

; Function Attrs: mustprogress nounwind uwtable
define linkonce_odr dso_local ptr @_ZNSt8_Rb_treeIKNSt7__cxx1112basic_stringIcSt11char_traitsIcESaIcEEESt4pairIS6_7VDefineESt10_Select1stIS9_ESt4lessIS6_ESaIS9_EE5eraseB5cxx11ESt17_Rb_tree_iteratorIS9_E(ptr noundef nonnull align 8 dereferenceable(48) %0, ptr %1) #4 comdat align 2 {
  %3 = alloca %"struct.std::_Rb_tree_iterator", align 8
  %4 = alloca %"struct.std::_Rb_tree_iterator", align 8
  %5 = alloca ptr, align 8
  %6 = alloca %"struct.std::_Rb_tree_const_iterator", align 8
  %7 = getelementptr inbounds nuw %"struct.std::_Rb_tree_iterator", ptr %4, i32 0, i32 0
  store ptr %1, ptr %7, align 8
  store ptr %0, ptr %5, align 8, !tbaa !604
  %8 = load ptr, ptr %5, align 8
  br label %9

9:                                                ; preds = %2
  br label %10

10:                                               ; preds = %9
  call void @llvm.memcpy.p0.p0.i64(ptr align 8 %3, ptr align 8 %4, i64 8, i1 false), !tbaa.struct !268
  %11 = call noundef nonnull align 8 dereferenceable(8) ptr @_ZNSt17_Rb_tree_iteratorISt4pairIKNSt7__cxx1112basic_stringIcSt11char_traitsIcESaIcEEE7VDefineEEppEv(ptr noundef nonnull align 8 dereferenceable(8) %3) #3
  call void @_ZNSt23_Rb_tree_const_iteratorISt4pairIKNSt7__cxx1112basic_stringIcSt11char_traitsIcESaIcEEE7VDefineEEC2ERKSt17_Rb_tree_iteratorIS9_E(ptr noundef nonnull align 8 dereferenceable(8) %6, ptr noundef nonnull align 8 dereferenceable(8) %4) #3
  %12 = getelementptr inbounds nuw %"struct.std::_Rb_tree_const_iterator", ptr %6, i32 0, i32 0
  %13 = load ptr, ptr %12, align 8
  call void @_ZNSt8_Rb_treeIKNSt7__cxx1112basic_stringIcSt11char_traitsIcESaIcEEESt4pairIS6_7VDefineESt10_Select1stIS9_ESt4lessIS6_ESaIS9_EE12_M_erase_auxESt23_Rb_tree_const_iteratorIS9_E(ptr noundef nonnull align 8 dereferenceable(48) %8, ptr %13)
  %14 = getelementptr inbounds nuw %"struct.std::_Rb_tree_iterator", ptr %3, i32 0, i32 0
  %15 = load ptr, ptr %14, align 8
  ret ptr %15
}

; Function Attrs: mustprogress nounwind uwtable
define linkonce_odr dso_local noundef ptr @_ZNSt13_Rb_tree_nodeISt4pairIKNSt7__cxx1112basic_stringIcSt11char_traitsIcESaIcEEE7VDefineEE9_M_valptrEv(ptr noundef nonnull align 8 dereferenceable(144) %0) #4 comdat align 2 {
  %2 = alloca ptr, align 8
  store ptr %0, ptr %2, align 8, !tbaa !782
  %3 = load ptr, ptr %2, align 8
  %4 = getelementptr inbounds nuw %"struct.std::_Rb_tree_node.179", ptr %3, i32 0, i32 1
  %5 = call noundef ptr @_ZN9__gnu_cxx16__aligned_membufISt4pairIKNSt7__cxx1112basic_stringIcSt11char_traitsIcESaIcEEE7VDefineEE6_M_ptrEv(ptr noundef nonnull align 8 dereferenceable(112) %4) #3
  ret ptr %5
}

; Function Attrs: mustprogress nounwind uwtable
define linkonce_odr dso_local ptr @_ZNSt8_Rb_treeIKNSt7__cxx1112basic_stringIcSt11char_traitsIcESaIcEEESt4pairIS6_7VDefineESt10_Select1stIS9_ESt4lessIS6_ESaIS9_EE3endEv(ptr noundef nonnull align 8 dereferenceable(48) %0) #4 comdat align 2 {
  %2 = alloca %"struct.std::_Rb_tree_iterator", align 8
  %3 = alloca ptr, align 8
  store ptr %0, ptr %3, align 8, !tbaa !604
  %4 = load ptr, ptr %3, align 8
  %5 = getelementptr inbounds nuw %"class.std::_Rb_tree.59", ptr %4, i32 0, i32 0
  %6 = getelementptr inbounds i8, ptr %5, i64 8
  %7 = getelementptr inbounds nuw %"struct.std::_Rb_tree_header", ptr %6, i32 0, i32 0
  call void @_ZNSt17_Rb_tree_iteratorISt4pairIKNSt7__cxx1112basic_stringIcSt11char_traitsIcESaIcEEE7VDefineEEC2EPSt18_Rb_tree_node_base(ptr noundef nonnull align 8 dereferenceable(8) %2, ptr noundef %7) #3
  %8 = getelementptr inbounds nuw %"struct.std::_Rb_tree_iterator", ptr %2, i32 0, i32 0
  %9 = load ptr, ptr %8, align 8
  ret ptr %9
}

; Function Attrs: mustprogress nounwind uwtable
define linkonce_odr dso_local ptr @_ZNSt8_Rb_treeIKNSt7__cxx1112basic_stringIcSt11char_traitsIcESaIcEEESt4pairIS6_7VDefineESt10_Select1stIS9_ESt4lessIS6_ESaIS9_EE5beginEv(ptr noundef nonnull align 8 dereferenceable(48) %0) #4 comdat align 2 {
  %2 = alloca %"struct.std::_Rb_tree_iterator", align 8
  %3 = alloca ptr, align 8
  store ptr %0, ptr %3, align 8, !tbaa !604
  %4 = load ptr, ptr %3, align 8
  %5 = getelementptr inbounds nuw %"class.std::_Rb_tree.59", ptr %4, i32 0, i32 0
  %6 = getelementptr inbounds i8, ptr %5, i64 8
  %7 = getelementptr inbounds nuw %"struct.std::_Rb_tree_header", ptr %6, i32 0, i32 0
  %8 = getelementptr inbounds nuw %"struct.std::_Rb_tree_node_base", ptr %7, i32 0, i32 2
  %9 = load ptr, ptr %8, align 8, !tbaa !411
  call void @_ZNSt17_Rb_tree_iteratorISt4pairIKNSt7__cxx1112basic_stringIcSt11char_traitsIcESaIcEEE7VDefineEEC2EPSt18_Rb_tree_node_base(ptr noundef nonnull align 8 dereferenceable(8) %2, ptr noundef %9) #3
  %10 = getelementptr inbounds nuw %"struct.std::_Rb_tree_iterator", ptr %2, i32 0, i32 0
  %11 = load ptr, ptr %10, align 8
  ret ptr %11
}

; Function Attrs: mustprogress uwtable
define linkonce_odr dso_local ptr @_ZNSt3mapIKNSt7__cxx1112basic_stringIcSt11char_traitsIcESaIcEEE7VDefineSt4lessIS6_ESaISt4pairIS6_S7_EEE5eraseB5cxx11ESt17_Rb_tree_iteratorISB_E(ptr noundef nonnull align 8 dereferenceable(48) %0, ptr %1) #5 comdat align 2 {
  %3 = alloca %"struct.std::_Rb_tree_iterator", align 8
  %4 = alloca %"struct.std::_Rb_tree_iterator", align 8
  %5 = alloca ptr, align 8
  %6 = alloca %"struct.std::_Rb_tree_iterator", align 8
  %7 = getelementptr inbounds nuw %"struct.std::_Rb_tree_iterator", ptr %4, i32 0, i32 0
  store ptr %1, ptr %7, align 8
  store ptr %0, ptr %5, align 8, !tbaa !266
  %8 = load ptr, ptr %5, align 8
  %9 = getelementptr inbounds nuw %"class.std::map.58", ptr %8, i32 0, i32 0
  call void @llvm.memcpy.p0.p0.i64(ptr align 8 %6, ptr align 8 %4, i64 8, i1 false), !tbaa.struct !268
  %10 = getelementptr inbounds nuw %"struct.std::_Rb_tree_iterator", ptr %6, i32 0, i32 0
  %11 = load ptr, ptr %10, align 8
  %12 = call ptr @_ZNSt8_Rb_treeIKNSt7__cxx1112basic_stringIcSt11char_traitsIcESaIcEEESt4pairIS6_7VDefineESt10_Select1stIS9_ESt4lessIS6_ESaIS9_EE5eraseB5cxx11ESt17_Rb_tree_iteratorIS9_E(ptr noundef nonnull align 8 dereferenceable(48) %9, ptr %11)
  %13 = getelementptr inbounds nuw %"struct.std::_Rb_tree_iterator", ptr %3, i32 0, i32 0
  store ptr %12, ptr %13, align 8
  %14 = getelementptr inbounds nuw %"struct.std::_Rb_tree_iterator", ptr %3, i32 0, i32 0
  %15 = load ptr, ptr %14, align 8
  ret ptr %15
}

; Function Attrs: mustprogress nounwind uwtable
define linkonce_odr dso_local noundef zeroext i1 @_ZNK7VDefine7cmdlineEv(ptr noundef nonnull align 8 dereferenceable(80) %0) #4 comdat align 2 {
  %2 = alloca ptr, align 8
  store ptr %0, ptr %2, align 8, !tbaa !275
  %3 = load ptr, ptr %2, align 8
  %4 = getelementptr inbounds nuw %class.VDefine, ptr %3, i32 0, i32 3
  %5 = load i8, ptr %4, align 8, !tbaa !277, !range !56, !noundef !57
  %6 = trunc i8 %5 to i1
  ret i1 %6
}

; Function Attrs: mustprogress nounwind uwtable
define linkonce_odr dso_local noundef ptr @_ZNKSt17_Rb_tree_iteratorISt4pairIKNSt7__cxx1112basic_stringIcSt11char_traitsIcESaIcEEE7VDefineEEptEv(ptr noundef nonnull align 8 dereferenceable(8) %0) #4 comdat align 2 {
  %2 = alloca ptr, align 8
  store ptr %0, ptr %2, align 8, !tbaa !271
  %3 = load ptr, ptr %2, align 8
  %4 = getelementptr inbounds nuw %"struct.std::_Rb_tree_iterator", ptr %3, i32 0, i32 0
  %5 = load ptr, ptr %4, align 8, !tbaa !273
  %6 = call noundef ptr @_ZNSt13_Rb_tree_nodeISt4pairIKNSt7__cxx1112basic_stringIcSt11char_traitsIcESaIcEEE7VDefineEE9_M_valptrEv(ptr noundef nonnull align 8 dereferenceable(144) %5)
  ret ptr %6
}

; Function Attrs: mustprogress nounwind uwtable
define linkonce_odr dso_local noundef nonnull align 8 dereferenceable(8) ptr @_ZNSt17_Rb_tree_iteratorISt4pairIKNSt7__cxx1112basic_stringIcSt11char_traitsIcESaIcEEE7VDefineEEppEv(ptr noundef nonnull align 8 dereferenceable(8) %0) #4 comdat align 2 {
  %2 = alloca ptr, align 8
  store ptr %0, ptr %2, align 8, !tbaa !271
  %3 = load ptr, ptr %2, align 8
  %4 = getelementptr inbounds nuw %"struct.std::_Rb_tree_iterator", ptr %3, i32 0, i32 0
  %5 = load ptr, ptr %4, align 8, !tbaa !273
  %6 = call noundef ptr @_ZSt18_Rb_tree_incrementPSt18_Rb_tree_node_base(ptr noundef %5) #25
  %7 = getelementptr inbounds nuw %"struct.std::_Rb_tree_iterator", ptr %3, i32 0, i32 0
  store ptr %6, ptr %7, align 8, !tbaa !273
  ret ptr %3
}

; Function Attrs: mustprogress nounwind uwtable
define linkonce_odr dso_local noundef zeroext i1 @_ZStneRKSt17_Rb_tree_iteratorISt4pairIKNSt7__cxx1112basic_stringIcSt11char_traitsIcESaIcEEE7VDefineEESC_(ptr noundef nonnull align 8 dereferenceable(8) %0, ptr noundef nonnull align 8 dereferenceable(8) %1) #4 comdat {
  %3 = alloca ptr, align 8
  %4 = alloca ptr, align 8
  store ptr %0, ptr %3, align 8, !tbaa !271
  store ptr %1, ptr %4, align 8, !tbaa !271
  %5 = load ptr, ptr %3, align 8, !tbaa !271
  %6 = getelementptr inbounds nuw %"struct.std::_Rb_tree_iterator", ptr %5, i32 0, i32 0
  %7 = load ptr, ptr %6, align 8, !tbaa !273
  %8 = load ptr, ptr %4, align 8, !tbaa !271
  %9 = getelementptr inbounds nuw %"struct.std::_Rb_tree_iterator", ptr %8, i32 0, i32 0
  %10 = load ptr, ptr %9, align 8, !tbaa !273
  %11 = icmp ne ptr %7, %10
  ret i1 %11
}

; Function Attrs: mustprogress nounwind uwtable
define linkonce_odr dso_local ptr @_ZNSt3mapIKNSt7__cxx1112basic_stringIcSt11char_traitsIcESaIcEEE7VDefineSt4lessIS6_ESaISt4pairIS6_S7_EEE3endEv(ptr noundef nonnull align 8 dereferenceable(48) %0) #4 comdat align 2 {
  %2 = alloca %"struct.std::_Rb_tree_iterator", align 8
  %3 = alloca ptr, align 8
  store ptr %0, ptr %3, align 8, !tbaa !266
  %4 = load ptr, ptr %3, align 8
  %5 = getelementptr inbounds nuw %"class.std::map.58", ptr %4, i32 0, i32 0
  %6 = call ptr @_ZNSt8_Rb_treeIKNSt7__cxx1112basic_stringIcSt11char_traitsIcESaIcEEESt4pairIS6_7VDefineESt10_Select1stIS9_ESt4lessIS6_ESaIS9_EE3endEv(ptr noundef nonnull align 8 dereferenceable(48) %5) #3
  %7 = getelementptr inbounds nuw %"struct.std::_Rb_tree_iterator", ptr %2, i32 0, i32 0
  store ptr %6, ptr %7, align 8
  %8 = getelementptr inbounds nuw %"struct.std::_Rb_tree_iterator", ptr %2, i32 0, i32 0
  %9 = load ptr, ptr %8, align 8
  ret ptr %9
}

; Function Attrs: mustprogress nounwind uwtable
define linkonce_odr dso_local ptr @_ZNSt3mapIKNSt7__cxx1112basic_stringIcSt11char_traitsIcESaIcEEE7VDefineSt4lessIS6_ESaISt4pairIS6_S7_EEE5beginEv(ptr noundef nonnull align 8 dereferenceable(48) %0) #4 comdat align 2 {
  %2 = alloca %"struct.std::_Rb_tree_iterator", align 8
  %3 = alloca ptr, align 8
  store ptr %0, ptr %3, align 8, !tbaa !266
  %4 = load ptr, ptr %3, align 8
  %5 = getelementptr inbounds nuw %"class.std::map.58", ptr %4, i32 0, i32 0
  %6 = call ptr @_ZNSt8_Rb_treeIKNSt7__cxx1112basic_stringIcSt11char_traitsIcESaIcEEESt4pairIS6_7VDefineESt10_Select1stIS9_ESt4lessIS6_ESaIS9_EE5beginEv(ptr noundef nonnull align 8 dereferenceable(48) %5) #3
  %7 = getelementptr inbounds nuw %"struct.std::_Rb_tree_iterator", ptr %2, i32 0, i32 0
  store ptr %6, ptr %7, align 8
  %8 = getelementptr inbounds nuw %"struct.std::_Rb_tree_iterator", ptr %2, i32 0, i32 0
  %9 = load ptr, ptr %8, align 8
  ret ptr %9
}

; Function Attrs: mustprogress nounwind uwtable
define linkonce_odr dso_local void @_ZNSt17_Rb_tree_iteratorISt4pairIKNSt7__cxx1112basic_stringIcSt11char_traitsIcESaIcEEE7VDefineEEC2Ev(ptr noundef nonnull align 8 dereferenceable(8) %0) unnamed_addr #4 comdat align 2 {
  %2 = alloca ptr, align 8
  store ptr %0, ptr %2, align 8, !tbaa !271
  %3 = load ptr, ptr %2, align 8
  %4 = getelementptr inbounds nuw %"struct.std::_Rb_tree_iterator", ptr %3, i32 0, i32 0
  store ptr null, ptr %4, align 8, !tbaa !273
  ret void
}

; Function Attrs: mustprogress uwtable
define dso_local void @_ZN12V3PreProcImp11undefineallEv(ptr noundef nonnull align 8 dereferenceable(1080) %0) unnamed_addr #5 align 2 {
  %2 = alloca ptr, align 8
  %3 = alloca %"struct.std::_Rb_tree_iterator", align 8
  %4 = alloca %"struct.std::_Rb_tree_iterator", align 8
  %5 = alloca %"struct.std::_Rb_tree_iterator", align 8
  %6 = alloca %"struct.std::_Rb_tree_iterator", align 8
  %7 = alloca %"struct.std::_Rb_tree_iterator", align 8
  store ptr %0, ptr %2, align 8, !tbaa !200
  %8 = load ptr, ptr %2, align 8
  call void @llvm.lifetime.start.p0(i64 8, ptr %3) #3
  call void @_ZNSt17_Rb_tree_iteratorISt4pairIKNSt7__cxx1112basic_stringIcSt11char_traitsIcESaIcEEE7VDefineEEC2Ev(ptr noundef nonnull align 8 dereferenceable(8) %3) #3
  call void @llvm.lifetime.start.p0(i64 8, ptr %4) #3
  %9 = getelementptr inbounds nuw %class.V3PreProcImp, ptr %8, i32 0, i32 1
  %10 = call ptr @_ZNSt3mapIKNSt7__cxx1112basic_stringIcSt11char_traitsIcESaIcEEE7VDefineSt4lessIS6_ESaISt4pairIS6_S7_EEE5beginEv(ptr noundef nonnull align 8 dereferenceable(48) %9) #3
  %11 = getelementptr inbounds nuw %"struct.std::_Rb_tree_iterator", ptr %4, i32 0, i32 0
  store ptr %10, ptr %11, align 8
  br label %12

12:                                               ; preds = %30, %1
  call void @llvm.lifetime.start.p0(i64 8, ptr %5) #3
  %13 = getelementptr inbounds nuw %class.V3PreProcImp, ptr %8, i32 0, i32 1
  %14 = call ptr @_ZNSt3mapIKNSt7__cxx1112basic_stringIcSt11char_traitsIcESaIcEEE7VDefineSt4lessIS6_ESaISt4pairIS6_S7_EEE3endEv(ptr noundef nonnull align 8 dereferenceable(48) %13) #3
  %15 = getelementptr inbounds nuw %"struct.std::_Rb_tree_iterator", ptr %5, i32 0, i32 0
  store ptr %14, ptr %15, align 8
  %16 = call noundef zeroext i1 @_ZStneRKSt17_Rb_tree_iteratorISt4pairIKNSt7__cxx1112basic_stringIcSt11char_traitsIcESaIcEEE7VDefineEESC_(ptr noundef nonnull align 8 dereferenceable(8) %4, ptr noundef nonnull align 8 dereferenceable(8) %5) #3
  call void @llvm.lifetime.end.p0(i64 8, ptr %5) #3
  br i1 %16, label %18, label %17

17:                                               ; preds = %12
  call void @llvm.lifetime.end.p0(i64 8, ptr %4) #3
  call void @llvm.lifetime.end.p0(i64 8, ptr %3) #3
  br label %31

18:                                               ; preds = %12
  call void @llvm.memcpy.p0.p0.i64(ptr align 8 %3, ptr align 8 %4, i64 8, i1 false), !tbaa.struct !268
  %19 = call noundef nonnull align 8 dereferenceable(8) ptr @_ZNSt17_Rb_tree_iteratorISt4pairIKNSt7__cxx1112basic_stringIcSt11char_traitsIcESaIcEEE7VDefineEEppEv(ptr noundef nonnull align 8 dereferenceable(8) %3) #3
  %20 = call noundef ptr @_ZNKSt17_Rb_tree_iteratorISt4pairIKNSt7__cxx1112basic_stringIcSt11char_traitsIcESaIcEEE7VDefineEEptEv(ptr noundef nonnull align 8 dereferenceable(8) %4) #3
  %21 = getelementptr inbounds nuw %"struct.std::pair", ptr %20, i32 0, i32 1
  %22 = call noundef zeroext i1 @_ZNK7VDefine7cmdlineEv(ptr noundef nonnull align 8 dereferenceable(80) %21)
  br i1 %22, label %29, label %23

23:                                               ; preds = %18
  %24 = getelementptr inbounds nuw %class.V3PreProcImp, ptr %8, i32 0, i32 1
  call void @llvm.memcpy.p0.p0.i64(ptr align 8 %6, ptr align 8 %4, i64 8, i1 false), !tbaa.struct !268
  %25 = getelementptr inbounds nuw %"struct.std::_Rb_tree_iterator", ptr %6, i32 0, i32 0
  %26 = load ptr, ptr %25, align 8
  %27 = call ptr @_ZNSt3mapIKNSt7__cxx1112basic_stringIcSt11char_traitsIcESaIcEEE7VDefineSt4lessIS6_ESaISt4pairIS6_S7_EEE5eraseB5cxx11ESt17_Rb_tree_iteratorISB_E(ptr noundef nonnull align 8 dereferenceable(48) %24, ptr %26)
  %28 = getelementptr inbounds nuw %"struct.std::_Rb_tree_iterator", ptr %7, i32 0, i32 0
  store ptr %27, ptr %28, align 8
  br label %29

29:                                               ; preds = %23, %18
  br label %30

30:                                               ; preds = %29
  call void @llvm.memcpy.p0.p0.i64(ptr align 8 %4, ptr align 8 %3, i64 8, i1 false), !tbaa.struct !268
  br label %12, !llvm.loop !270

31:                                               ; preds = %17
  ret void
}