; Function Attrs: mustprogress nounwind uwtable
define dso_local void @_ZN12V3PreProcImp11undefineallEv(ptr noundef nonnull align 8 dereferenceable(1080) %0) unnamed_addr #7 align 2 {
  %2 = getelementptr inbounds nuw i8, ptr %0, i64 8
  %3 = getelementptr inbounds nuw i8, ptr %0, i64 32
  %4 = load ptr, ptr %3, align 8, !tbaa !877
  %5 = getelementptr inbounds nuw i8, ptr %0, i64 16
  %.not5 = icmp eq ptr %4, %5
  br i1 %.not5, label %._crit_edge, label %.lr.ph

._crit_edge:                                      ; preds = %11, %1
  ret void

.lr.ph:                                           ; preds = %1, %11
  %storemerge.in6 = phi ptr [ %6, %11 ], [ %4, %1 ]
  %6 = tail call noundef ptr @_ZSt18_Rb_tree_incrementPSt18_Rb_tree_node_base(ptr noundef %storemerge.in6) #46
  %7 = getelementptr inbounds nuw i8, ptr %storemerge.in6, i64 136
  %8 = load i8, ptr %7, align 8, !tbaa !948, !range !105, !noundef !106
  %9 = trunc nuw i8 %8 to i1
  br i1 %9, label %11, label %10

10:                                               ; preds = %.lr.ph
  tail call void @_ZNSt8_Rb_treeIKNSt7__cxx1112basic_stringIcSt11char_traitsIcESaIcEEESt4pairIS6_7VDefineESt10_Select1stIS9_ESt4lessIS6_ESaIS9_EE12_M_erase_auxESt23_Rb_tree_const_iteratorIS9_E(ptr noundef nonnull align 8 dereferenceable(48) %2, ptr nonnull %storemerge.in6)
  br label %11

11:                                               ; preds = %.lr.ph, %10
  %.not = icmp eq ptr %6, %5
  br i1 %.not, label %._crit_edge, label %.lr.ph, !llvm.loop !950
}